target datalayout = "e-m:e-p270:32:32-p271:32:32-p272:64:64-i64:64-i128:128-f80:128-n8:16:32:64-S128"
target triple = "x86_64-pc-linux-gnu"

%struct._zend_executor_globals = type { %struct._zval_struct, %struct._zval_struct, [32 x ptr], ptr, ptr, %struct._zend_array, %struct._zend_array, ptr, i32, i32, ptr, ptr, ptr, ptr, ptr, ptr, i64, ptr, ptr, i32, i32, i64, i32, i32, i32, i8, i8, %struct.zend_atomic_bool_s, %struct.zend_atomic_bool_s, ptr, i64, ptr, ptr, %struct._zend_array, %struct._zend_array, i32, i8, %struct._zval_struct, %struct._zval_struct, %struct._zend_stack, %struct._zend_stack, %struct._zend_stack, ptr, i32, i32, i64, ptr, ptr, ptr, %struct._zend_objects_store, ptr, ptr, ptr, [3 x %struct._zend_op], ptr, i8, i8, i64, i32, i32, ptr, [16 x %struct._HashTableIterator], ptr, %union._zend_function, %struct._zend_op, %struct._zend_array, i64, %struct.zend_get_gc_buffer, ptr, ptr, ptr, i64, i8, i32, ptr, ptr, i64, %struct._zend_call_stack, i64, i64, [6 x ptr] }
%struct.zend_atomic_bool_s = type { i8 }
%struct._zval_struct = type { %union._zend_value, %union.anon, %union.anon.2 }
%union._zend_value = type { i64 }
%union.anon = type { i32 }
%union.anon.2 = type { i32 }
%struct._zend_stack = type { i32, i32, i32, ptr }
%struct._zend_objects_store = type { ptr, i32, i32, i32 }
%struct._HashTableIterator = type { ptr, i32, i32 }
%union._zend_function = type { %struct._zend_op_array }
%struct._zend_op_array = type { i8, [3 x i8], i32, ptr, ptr, ptr, i32, i32, ptr, ptr, ptr, ptr, i32, i32, i32, i32, ptr, ptr, ptr, ptr, ptr, i32, i32, ptr, ptr, ptr, i32, i32, i32, i32, ptr, ptr, [6 x ptr] }
%struct._zend_op = type { ptr, %union._znode_op, %union._znode_op, %union._znode_op, i32, i32, i8, i8, i8, i8 }
%union._znode_op = type { i32 }
%struct._zend_array = type { %struct._zend_refcounted_h, %union.anon.4, i32, %union.anon.6, i32, i32, i32, i32, i64, ptr }
%struct._zend_refcounted_h = type { i32, %union.anon.3 }
%union.anon.3 = type { i32 }
%union.anon.4 = type { i32 }
%union.anon.6 = type { ptr }
%struct.zend_get_gc_buffer = type { ptr, ptr, ptr }
%struct._zend_call_stack = type { ptr, i64 }
%struct._zend_string = type { %struct._zend_refcounted_h, i64, i64, [1 x i8] }
%struct._dom_object = type { ptr, ptr, ptr, %struct._zend_object }
%struct._zend_object = type { %struct._zend_refcounted_h, i32, ptr, ptr, ptr, [1 x %struct._zval_struct] }
%struct._zend_execute_data = type { ptr, ptr, ptr, ptr, %struct._zval_struct, ptr, ptr, ptr, ptr }
%struct._zend_class_entry = type { i8, ptr, %union.anon.8, i32, i32, i32, i32, ptr, ptr, ptr, %struct._zend_array, %struct._zend_array, %struct._zend_array, ptr, ptr, ptr, ptr, ptr, ptr, ptr, ptr, ptr, ptr, ptr, ptr, ptr, ptr, ptr, ptr, ptr, ptr, ptr, %union.anon.9, ptr, ptr, ptr, ptr, i32, i32, %union.anon.10, ptr, ptr, ptr, ptr, i32, ptr, ptr, %union.anon.11 }
%union.anon.8 = type { ptr }
%union.anon.9 = type { ptr }
%union.anon.10 = type { ptr }
%union.anon.11 = type { %struct.anon.12 }
%struct.anon.12 = type { ptr, i32, i32 }
%struct._php_libxml_node_ptr = type { ptr, i32, ptr }
%struct._xmlValidCtxt = type { ptr, ptr, ptr, ptr, i32, i32, ptr, i32, ptr, i32, ptr, i32, i32, ptr, ptr, ptr }

@executor_globals = external global %struct._zend_executor_globals, align 8
@.str.2 = private unnamed_addr constant [18 x i8] c"Couldn't fetch %s\00", align 1

; Function Attrs: nounwind uwtable
define internal ptr @php_dom_obj_from_obj(ptr noundef %0) #0 {
  %2 = alloca ptr, align 8
  store ptr %0, ptr %2, align 8
  %3 = load ptr, ptr %2, align 8
  %4 = getelementptr inbounds i8, ptr %3, i64 -24
  ret ptr %4
}

; Function Attrs: nounwind uwtable
define hidden void @zim_DOMDocument_validate(ptr noundef %0, ptr noundef %1) #0 {
  %3 = alloca ptr, align 8
  %4 = alloca ptr, align 8
  %5 = alloca ptr, align 8
  %6 = alloca ptr, align 8
  %7 = alloca ptr, align 8
  %8 = alloca ptr, align 8
  %9 = alloca i32, align 4
  %10 = alloca i32, align 4
  %11 = alloca i32, align 4
  %12 = alloca i32, align 4
  %13 = alloca i32, align 4
  %14 = alloca i32, align 4
  store ptr %0, ptr %3, align 8
  store ptr %1, ptr %4, align 8
  %15 = load ptr, ptr %3, align 8
  %16 = getelementptr inbounds %struct._zend_execute_data, ptr %15, i32 0, i32 4
  store ptr %16, ptr %5, align 8
  %17 = load ptr, ptr %3, align 8
  %18 = getelementptr inbounds %struct._zend_execute_data, ptr %17, i32 0, i32 4
  %19 = getelementptr inbounds %struct._zval_struct, ptr %18, i32 0, i32 2
  %20 = load i32, ptr %19, align 4
  %21 = icmp eq i32 %20, 0
  %22 = xor i1 %21, true
  %23 = xor i1 %22, true
  %24 = zext i1 %23 to i32
  %25 = sext i32 %24 to i64
  %26 = icmp ne i64 %25, 0
  br i1 %26, label %27, label %28

27:                                               ; preds = %2
  br label %29

28:                                               ; preds = %2
  call void @zend_wrong_parameters_none_error()
  br label %29

29:                                               ; preds = %28, %27
  %30 = phi i32 [ 0, %27 ], [ -1, %28 ]
  %31 = icmp eq i32 %30, -1
  br i1 %31, label %32, label %37

32:                                               ; preds = %29
  br label %33

33:                                               ; preds = %32
  %34 = load ptr, ptr getelementptr inbounds (%struct._zend_executor_globals, ptr @executor_globals, i32 0, i32 50), align 8
  %35 = icmp ne ptr %34, null
  call void @llvm.assume(i1 %35)
  br label %115

36:                                               ; No predecessors!
  br label %37

37:                                               ; preds = %36, %29
  %38 = load ptr, ptr %5, align 8
  %39 = getelementptr inbounds %struct._zval_struct, ptr %38, i32 0, i32 0
  %40 = load ptr, ptr %39, align 8
  %41 = call ptr @php_dom_obj_from_obj(ptr noundef %40)
  store ptr %41, ptr %7, align 8
  %42 = load ptr, ptr %7, align 8
  %43 = getelementptr inbounds %struct._dom_object, ptr %42, i32 0, i32 0
  %44 = load ptr, ptr %43, align 8
  %45 = icmp eq ptr %44, null
  %46 = xor i1 %45, true
  %47 = xor i1 %46, true
  %48 = zext i1 %47 to i32
  %49 = sext i32 %48 to i64
  %50 = icmp ne i64 %49, 0
  br i1 %50, label %51, label %64

51:                                               ; preds = %37
  %52 = load ptr, ptr %7, align 8
  %53 = getelementptr inbounds %struct._dom_object, ptr %52, i32 0, i32 3
  %54 = getelementptr inbounds %struct._zend_object, ptr %53, i32 0, i32 2
  %55 = load ptr, ptr %54, align 8
  %56 = getelementptr inbounds %struct._zend_class_entry, ptr %55, i32 0, i32 1
  %57 = load ptr, ptr %56, align 8
  %58 = getelementptr inbounds %struct._zend_string, ptr %57, i32 0, i32 3
  %59 = getelementptr inbounds [1 x i8], ptr %58, i64 0, i64 0
  call void (ptr, ptr, ...) @zend_throw_error(ptr noundef null, ptr noundef @.str.2, ptr noundef %59)
  br label %60

60:                                               ; preds = %51
  %61 = load ptr, ptr getelementptr inbounds (%struct._zend_executor_globals, ptr @executor_globals, i32 0, i32 50), align 8
  %62 = icmp ne ptr %61, null
  call void @llvm.assume(i1 %62)
  br label %115

63:                                               ; No predecessors!
  br label %64

64:                                               ; preds = %63, %37
  %65 = load ptr, ptr %7, align 8
  %66 = getelementptr inbounds %struct._dom_object, ptr %65, i32 0, i32 0
  %67 = load ptr, ptr %66, align 8
  %68 = getelementptr inbounds %struct._php_libxml_node_ptr, ptr %67, i32 0, i32 0
  %69 = load ptr, ptr %68, align 8
  store ptr %69, ptr %6, align 8
  %70 = call ptr @__xmlLoadExtDtdDefaultValue()
  %71 = load i32, ptr %70, align 4
  store i32 %71, ptr %9, align 4
  %72 = call ptr @__xmlLoadExtDtdDefaultValue()
  store i32 0, ptr %72, align 4
  %73 = call ptr @__xmlDoValidityCheckingDefaultValue()
  %74 = load i32, ptr %73, align 4
  store i32 %74, ptr %10, align 4
  %75 = call ptr @__xmlDoValidityCheckingDefaultValue()
  store i32 0, ptr %75, align 4
  %76 = call i32 @xmlPedanticParserDefault(i32 noundef 0)
  store i32 %76, ptr %11, align 4
  %77 = call i32 @xmlSubstituteEntitiesDefault(i32 noundef 0)
  store i32 %77, ptr %12, align 4
  %78 = call i32 @xmlLineNumbersDefault(i32 noundef 0)
  store i32 %78, ptr %13, align 4
  %79 = call i32 @xmlKeepBlanksDefault(i32 noundef 1)
  store i32 %79, ptr %14, align 4
  %80 = call ptr @xmlNewValidCtxt()
  store ptr %80, ptr %8, align 8
  %81 = load ptr, ptr %8, align 8
  %82 = getelementptr inbounds %struct._xmlValidCtxt, ptr %81, i32 0, i32 0
  store ptr null, ptr %82, align 8
  %83 = load ptr, ptr %8, align 8
  %84 = getelementptr inbounds %struct._xmlValidCtxt, ptr %83, i32 0, i32 1
  store ptr @php_libxml_error_handler, ptr %84, align 8
  %85 = load ptr, ptr %8, align 8
  %86 = getelementptr inbounds %struct._xmlValidCtxt, ptr %85, i32 0, i32 2
  store ptr @php_libxml_error_handler, ptr %86, align 8
  %87 = load ptr, ptr %8, align 8
  %88 = load ptr, ptr %6, align 8
  %89 = call i32 @xmlValidateDocument(ptr noundef %87, ptr noundef %88)
  %90 = icmp ne i32 %89, 0
  br i1 %90, label %91, label %96

91:                                               ; preds = %64
  br label %92

92:                                               ; preds = %91
  %93 = load ptr, ptr %4, align 8
  %94 = getelementptr inbounds %struct._zval_struct, ptr %93, i32 0, i32 1
  store i32 3, ptr %94, align 8
  br label %95

95:                                               ; preds = %92
  br label %101

96:                                               ; preds = %64
  br label %97

97:                                               ; preds = %96
  %98 = load ptr, ptr %4, align 8
  %99 = getelementptr inbounds %struct._zval_struct, ptr %98, i32 0, i32 1
  store i32 2, ptr %99, align 8
  br label %100

100:                                              ; preds = %97
  br label %101

101:                                              ; preds = %100, %95
  %102 = load i32, ptr %9, align 4
  %103 = call ptr @__xmlLoadExtDtdDefaultValue()
  store i32 %102, ptr %103, align 4
  %104 = load i32, ptr %10, align 4
  %105 = call ptr @__xmlDoValidityCheckingDefaultValue()
  store i32 %104, ptr %105, align 4
  %106 = load i32, ptr %11, align 4
  %107 = call i32 @xmlPedanticParserDefault(i32 noundef %106)
  %108 = load i32, ptr %12, align 4
  %109 = call i32 @xmlSubstituteEntitiesDefault(i32 noundef %108)
  %110 = load i32, ptr %13, align 4
  %111 = call i32 @xmlLineNumbersDefault(i32 noundef %110)
  %112 = load i32, ptr %14, align 4
  %113 = call i32 @xmlKeepBlanksDefault(i32 noundef %112)
  %114 = load ptr, ptr %8, align 8
  call void @xmlFreeValidCtxt(ptr noundef %114)
  br label %115

115:                                              ; preds = %101, %60, %33
  ret void
}