; Function Attrs: nounwind uwtable
define hidden void @zim_DOMDocument_validate(ptr nocapture noundef readonly %0, ptr nocapture noundef writeonly %1) local_unnamed_addr #0 {
  %3 = getelementptr inbounds i8, ptr %0, i64 44
  %4 = load i32, ptr %3, align 4
  %.not = icmp eq i32 %4, 0
  br i1 %.not, label %.critedge, label %5

5:                                                ; preds = %2
  tail call void @zend_wrong_parameters_none_error() #10
  %6 = load ptr, ptr getelementptr inbounds (%struct._zend_executor_globals, ptr @executor_globals, i64 0, i32 50), align 8
  %7 = icmp ne ptr %6, null
  tail call void @llvm.assume(i1 %7)
  br label %44

.critedge:                                        ; preds = %2
  %8 = getelementptr inbounds i8, ptr %0, i64 32
  %9 = load ptr, ptr %8, align 8
  %10 = getelementptr inbounds i8, ptr %9, i64 -24
  %11 = load ptr, ptr %10, align 8
  %12 = icmp eq ptr %11, null
  br i1 %12, label %13, label %21

13:                                               ; preds = %.critedge
  %14 = getelementptr inbounds i8, ptr %9, i64 16
  %15 = load ptr, ptr %14, align 8
  %16 = getelementptr inbounds i8, ptr %15, i64 8
  %17 = load ptr, ptr %16, align 8
  %18 = getelementptr inbounds i8, ptr %17, i64 24
  tail call void (ptr, ptr, ...) @zend_throw_error(ptr noundef null, ptr noundef nonnull @.str.2, ptr noundef nonnull %18) #10
  %19 = load ptr, ptr getelementptr inbounds (%struct._zend_executor_globals, ptr @executor_globals, i64 0, i32 50), align 8
  %20 = icmp ne ptr %19, null
  tail call void @llvm.assume(i1 %20)
  br label %44

21:                                               ; preds = %.critedge
  %22 = load ptr, ptr %11, align 8
  %23 = tail call ptr @__xmlLoadExtDtdDefaultValue() #10
  %24 = load i32, ptr %23, align 4
  %25 = tail call ptr @__xmlLoadExtDtdDefaultValue() #10
  store i32 0, ptr %25, align 4
  %26 = tail call ptr @__xmlDoValidityCheckingDefaultValue() #10
  %27 = load i32, ptr %26, align 4
  %28 = tail call ptr @__xmlDoValidityCheckingDefaultValue() #10
  store i32 0, ptr %28, align 4
  %29 = tail call i32 @xmlPedanticParserDefault(i32 noundef 0) #10
  %30 = tail call i32 @xmlSubstituteEntitiesDefault(i32 noundef 0) #10
  %31 = tail call i32 @xmlLineNumbersDefault(i32 noundef 0) #10
  %32 = tail call i32 @xmlKeepBlanksDefault(i32 noundef 1) #10
  %33 = tail call ptr @xmlNewValidCtxt() #10
  store ptr null, ptr %33, align 8
  %34 = getelementptr inbounds i8, ptr %33, i64 8
  store ptr @php_libxml_error_handler, ptr %34, align 8
  %35 = getelementptr inbounds i8, ptr %33, i64 16
  store ptr @php_libxml_error_handler, ptr %35, align 8
  %36 = tail call i32 @xmlValidateDocument(ptr noundef nonnull %33, ptr noundef %22) #10
  %.not19 = icmp eq i32 %36, 0
  %spec.select = select i1 %.not19, i32 2, i32 3
  %37 = getelementptr inbounds i8, ptr %1, i64 8
  store i32 %spec.select, ptr %37, align 8
  %38 = tail call ptr @__xmlLoadExtDtdDefaultValue() #10
  store i32 %24, ptr %38, align 4
  %39 = tail call ptr @__xmlDoValidityCheckingDefaultValue() #10
  store i32 %27, ptr %39, align 4
  %40 = tail call i32 @xmlPedanticParserDefault(i32 noundef %29) #10
  %41 = tail call i32 @xmlSubstituteEntitiesDefault(i32 noundef %30) #10
  %42 = tail call i32 @xmlLineNumbersDefault(i32 noundef %31) #10
  %43 = tail call i32 @xmlKeepBlanksDefault(i32 noundef %32) #10
  tail call void @xmlFreeValidCtxt(ptr noundef nonnull %33) #10
  br label %44

44:                                               ; preds = %21, %13, %5
  ret void
}